target datalayout = "e-m:e-p270:32:32-p271:32:32-p272:64:64-i64:64-i128:128-f80:128-n8:16:32:64-S128"
target triple = "x86_64-unknown-linux-gnu"

@_ZN16RBTestDataModuleC1EPKcR7TestLogR10UErrorCode = unnamed_addr alias void (ptr, ptr, ptr, ptr), ptr @_ZN16RBTestDataModuleC2EPKcR7TestLogR10UErrorCode

; Function Attrs: mustprogress nounwind uwtable
define internal noundef signext i8 @_ZL9U_SUCCESS10UErrorCode(i32 noundef %code) #0 {
entry:
  %code.addr = alloca i32, align 4
  store i32 %code, ptr %code.addr, align 4
  %0 = load i32, ptr %code.addr, align 4
  %cmp = icmp sle i32 %0, 0
  %conv = zext i1 %cmp to i8
  ret i8 %conv
}

; Function Attrs: mustprogress nounwind uwtable
define internal noundef signext i8 @_ZL9U_FAILURE10UErrorCode(i32 noundef %code) #0 {
entry:
  %code.addr = alloca i32, align 4
  store i32 %code, ptr %code.addr, align 4
  %0 = load i32, ptr %code.addr, align 4
  %cmp = icmp sgt i32 %0, 0
  %conv = zext i1 %cmp to i8
  ret i8 %conv
}

; Function Attrs: mustprogress uwtable
define noundef ptr @_ZN14TestDataModule17getTestDataModuleEPKcR7TestLogR10UErrorCode(ptr noundef %name, ptr noundef nonnull align 8 dereferenceable(8) %log, ptr noundef nonnull align 4 dereferenceable(4) %status) #1 align 2 personality ptr @__gxx_personality_v0 {
entry:
  %retval = alloca ptr, align 8
  %name.addr = alloca ptr, align 8
  %log.addr = alloca ptr, align 8
  %status.addr = alloca ptr, align 8
  %result = alloca ptr, align 8
  %exn.slot = alloca ptr, align 8
  %ehselector.slot = alloca i32, align 4
  store ptr %name, ptr %name.addr, align 8
  store ptr %log, ptr %log.addr, align 8
  store ptr %status, ptr %status.addr, align 8
  %0 = load ptr, ptr %status.addr, align 8
  %1 = load i32, ptr %0, align 4
  %call = call noundef signext i8 @_ZL9U_FAILURE10UErrorCode(i32 noundef %1)
  %tobool = icmp ne i8 %call, 0
  br i1 %tobool, label %if.then, label %if.end

if.then:                                          ; preds = %entry
  store ptr null, ptr %retval, align 8
  br label %return

if.end:                                           ; preds = %entry
  store ptr null, ptr %result, align 8
  %call1 = call noalias noundef nonnull ptr @_Znwm(i64 noundef 80) #14
  %2 = load ptr, ptr %name.addr, align 8
  %3 = load ptr, ptr %log.addr, align 8
  %4 = load ptr, ptr %status.addr, align 8
  invoke void @_ZN16RBTestDataModuleC1EPKcR7TestLogR10UErrorCode(ptr noundef nonnull align 8 dereferenceable(76) %call1, ptr noundef %2, ptr noundef nonnull align 8 dereferenceable(8) %3, ptr noundef nonnull align 4 dereferenceable(4) %4)
          to label %invoke.cont unwind label %lpad

invoke.cont:                                      ; preds = %if.end
  store ptr %call1, ptr %result, align 8
  %5 = load ptr, ptr %status.addr, align 8
  %6 = load i32, ptr %5, align 4
  %call2 = call noundef signext i8 @_ZL9U_SUCCESS10UErrorCode(i32 noundef %6)
  %tobool3 = icmp ne i8 %call2, 0
  br i1 %tobool3, label %if.then4, label %if.else

if.then4:                                         ; preds = %invoke.cont
  %7 = load ptr, ptr %result, align 8
  store ptr %7, ptr %retval, align 8
  br label %return

lpad:                                             ; preds = %if.end
  %8 = landingpad { ptr, i32 }
          cleanup
  %9 = extractvalue { ptr, i32 } %8, 0
  store ptr %9, ptr %exn.slot, align 8
  %10 = extractvalue { ptr, i32 } %8, 1
  store i32 %10, ptr %ehselector.slot, align 4
  call void @_ZdlPv(ptr noundef %call1) #15
  br label %eh.resume

if.else:                                          ; preds = %invoke.cont
  %11 = load ptr, ptr %result, align 8
  %isnull = icmp eq ptr %11, null
  br i1 %isnull, label %delete.end, label %delete.notnull

delete.notnull:                                   ; preds = %if.else
  %vtable = load ptr, ptr %11, align 8
  %vfn = getelementptr inbounds ptr, ptr %vtable, i64 1
  %12 = load ptr, ptr %vfn, align 8
  call void %12(ptr noundef nonnull align 8 dereferenceable(32) %11) #11
  br label %delete.end

delete.end:                                       ; preds = %delete.notnull, %if.else
  store ptr null, ptr %retval, align 8
  br label %return

return:                                           ; preds = %delete.end, %if.then4, %if.then
  %13 = load ptr, ptr %retval, align 8
  ret ptr %13

eh.resume:                                        ; preds = %lpad
  %exn = load ptr, ptr %exn.slot, align 8
  %sel = load i32, ptr %ehselector.slot, align 4
  %lpad.val = insertvalue { ptr, i32 } poison, ptr %exn, 0
  %lpad.val5 = insertvalue { ptr, i32 } %lpad.val, i32 %sel, 1
  resume { ptr, i32 } %lpad.val5
}