; Function Attrs: mustprogress uwtable
define noundef ptr @_ZN14TestDataModule17getTestDataModuleEPKcR7TestLogR10UErrorCode(ptr noundef %name, ptr noundef nonnull align 8 dereferenceable(8) %log, ptr noundef nonnull align 4 dereferenceable(4) %status) local_unnamed_addr #1 align 2 personality ptr @__gxx_personality_v0 {
entry:
  %0 = load i32, ptr %status, align 4
  %cmp.i = icmp slt i32 %0, 1
  br i1 %cmp.i, label %if.end, label %return

if.end:                                           ; preds = %entry
  %call1 = tail call noalias noundef nonnull dereferenceable(80) ptr @_Znwm(i64 noundef 80) #23
  invoke void @_ZN16RBTestDataModuleC1EPKcR7TestLogR10UErrorCode(ptr noundef nonnull align 8 dereferenceable(76) %call1, ptr noundef %name, ptr noundef nonnull align 8 dereferenceable(8) %log, ptr noundef nonnull align 4 dereferenceable(4) %status)
          to label %invoke.cont unwind label %lpad

invoke.cont:                                      ; preds = %if.end
  %1 = load i32, ptr %status, align 4
  %cmp.i4 = icmp sgt i32 %1, 0
  br i1 %cmp.i4, label %delete.notnull, label %return

lpad:                                             ; preds = %if.end
  %2 = landingpad { ptr, i32 }
          cleanup
  tail call void @_ZdlPv(ptr noundef nonnull %call1) #24
  resume { ptr, i32 } %2

delete.notnull:                                   ; preds = %invoke.cont
  %vtable = load ptr, ptr %call1, align 8
  %vfn = getelementptr inbounds i8, ptr %vtable, i64 8
  %3 = load ptr, ptr %vfn, align 8
  tail call void %3(ptr noundef nonnull align 8 dereferenceable(32) %call1) #20
  br label %return

return:                                           ; preds = %invoke.cont, %entry, %delete.notnull
  %retval.0 = phi ptr [ null, %delete.notnull ], [ null, %entry ], [ %call1, %invoke.cont ]
  ret ptr %retval.0
}